; Function Attrs: mustprogress nofree nounwind willreturn memory(write, argmem: readwrite) uwtable
define void @_ZNK3g2o16RobustKernelFair9robustifyEdRN5Eigen6MatrixIdLi3ELi1ELi0ELi3ELi1EEE(ptr noundef nonnull readonly align 8 captures(none) dereferenceable(16) %0, double noundef %1, ptr noundef nonnull writeonly align 8 captures(none) dereferenceable(24) initializes((0, 24)) %2) unnamed_addr #6 align 2 personality ptr @__gxx_personality_v0 {
  %4 = tail call double @sqrt(double noundef %1) #21, !tbaa !15
  %5 = getelementptr inbounds nuw i8, ptr %0, i64 8
  %6 = load double, ptr %5, align 8, !tbaa !21
  %7 = fmul double %6, %6
  %8 = fdiv double %4, %6
  %9 = fmul double %7, 2.000000e+00
  %10 = tail call double @log1p(double noundef %8) #21, !tbaa !15
  %11 = fsub double %8, %10
  %12 = fmul double %9, %11
  store double %12, ptr %2, align 8, !tbaa !24
  %13 = fadd double %8, 1.000000e+00
  %14 = fdiv double 1.000000e+00, %13
  %15 = getelementptr inbounds nuw i8, ptr %2, i64 8
  store double %14, ptr %15, align 8, !tbaa !24
  %16 = load double, ptr %5, align 8, !tbaa !21
  %17 = fdiv double 1.000000e+00, %16
  %18 = fmul double %1, %4
  %19 = fdiv double 1.000000e+00, %18
  %20 = tail call double @llvm.fmuladd.f64(double %17, double %4, double 1.000000e+00)
  %21 = fmul double %7, 4.000000e+00
  %22 = fmul double %21, %20
  %23 = fmul double %20, %22
  %24 = fmul double %1, %23
  %25 = fdiv double 1.000000e+00, %24
  %26 = fmul double %19, %17
  %27 = fmul double %20, 4.000000e+00
  %28 = fdiv double %26, %27
  %29 = fadd double %28, %25
  %30 = fmul double %26, 2.500000e-01
  %31 = fsub double %29, %30
  %32 = fmul double %9, %31
  %33 = getelementptr inbounds nuw i8, ptr %2, i64 16
  store double %32, ptr %33, align 8, !tbaa !24
  ret void
}